target datalayout = "e-m:e-p270:32:32-p271:32:32-p272:64:64-i64:64-i128:128-f80:128-n8:16:32:64-S128"
target triple = "x86_64-pc-linux-gnu"

%class.QString = type { ptr }
%"class.pymeshlab::FunctionParameter" = type { ptr, ptr }

; Function Attrs: mustprogress uwtable
define noundef zeroext i1 @_ZNK9pymeshlab17FunctionParameterltERKS0_(ptr noundef nonnull align 8 dereferenceable(16) %0, ptr noundef nonnull align 8 dereferenceable(16) %1) #2 align 2 personality ptr @__gxx_personality_v0 {
  %3 = alloca ptr, align 8
  %4 = alloca ptr, align 8
  %5 = alloca %class.QString, align 8
  %6 = alloca %class.QString, align 8
  %7 = alloca ptr, align 8
  %8 = alloca i32, align 4
  store ptr %0, ptr %3, align 8
  store ptr %1, ptr %4, align 8
  %9 = load ptr, ptr %3, align 8
  %10 = getelementptr inbounds %"class.pymeshlab::FunctionParameter", ptr %9, i32 0, i32 1
  %11 = load ptr, ptr %10, align 8
  call void @_ZNK13RichParameter10pythonNameEv(ptr dead_on_unwind writable sret(%class.QString) align 8 %5, ptr noundef nonnull align 8 dereferenceable(56) %11)
  %12 = load ptr, ptr %4, align 8
  %13 = getelementptr inbounds %"class.pymeshlab::FunctionParameter", ptr %12, i32 0, i32 1
  %14 = load ptr, ptr %13, align 8
  invoke void @_ZNK13RichParameter10pythonNameEv(ptr dead_on_unwind writable sret(%class.QString) align 8 %6, ptr noundef nonnull align 8 dereferenceable(56) %14)
          to label %15 unwind label %17

15:                                               ; preds = %2
  %16 = call noundef zeroext i1 @_ZltRK7QStringS1_(ptr noundef nonnull align 8 dereferenceable(8) %5, ptr noundef nonnull align 8 dereferenceable(8) %6) #3
  call void @_ZN7QStringD2Ev(ptr noundef nonnull align 8 dereferenceable(8) %6) #3
  call void @_ZN7QStringD2Ev(ptr noundef nonnull align 8 dereferenceable(8) %5) #3
  ret i1 %16

17:                                               ; preds = %2
  %18 = landingpad { ptr, i32 }
          cleanup
  %19 = extractvalue { ptr, i32 } %18, 0
  store ptr %19, ptr %7, align 8
  %20 = extractvalue { ptr, i32 } %18, 1
  store i32 %20, ptr %8, align 4
  call void @_ZN7QStringD2Ev(ptr noundef nonnull align 8 dereferenceable(8) %5) #3
  br label %21

21:                                               ; preds = %17
  %22 = load ptr, ptr %7, align 8
  %23 = load i32, ptr %8, align 4
  %24 = insertvalue { ptr, i32 } poison, ptr %22, 0
  %25 = insertvalue { ptr, i32 } %24, i32 %23, 1
  resume { ptr, i32 } %25
}